target datalayout = "e-m:e-p270:32:32-p271:32:32-p272:64:64-i64:64-i128:128-f80:128-n8:16:32:64-S128"
target triple = "x86_64-pc-linux-gnu"

%struct.darktable_t = type { %struct.dt_codepath_t, i32, i32, ptr, ptr, ptr, ptr, ptr, ptr, ptr, ptr, ptr, ptr, ptr, ptr, ptr, ptr, ptr, ptr, ptr, ptr, ptr, ptr, ptr, ptr, ptr, ptr, ptr, ptr, ptr, [64 x %struct.dt_pthread_mutex_t], %struct.dt_pthread_mutex_t, %struct.dt_pthread_mutex_t, %struct.dt_pthread_mutex_t, %struct.dt_pthread_mutex_t, %struct.dt_pthread_mutex_t, ptr, ptr, ptr, ptr, ptr, ptr, ptr, ptr, ptr, ptr, ptr, ptr, ptr, %struct.dt_lua_state_t, ptr, double, ptr, i32, [47 x i32], i32, i32, ptr, ptr, %struct.dt_sys_resources_t, %struct.dt_backthumb_t, %struct.dt_gimp_t }
%struct.dt_codepath_t = type { i8, [3 x i8] }
%struct.dt_pthread_mutex_t = type { %union.pthread_mutex_t }
%union.pthread_mutex_t = type { %struct.__pthread_mutex_s }
%struct.__pthread_mutex_s = type { i32, i32, i32, i32, i32, i16, i16, %struct.__pthread_internal_list }
%struct.__pthread_internal_list = type { ptr, ptr }
%struct.dt_lua_state_t = type { i32 }
%struct.dt_sys_resources_t = type { i64, i64, ptr, ptr, i32 }
%struct.dt_backthumb_t = type { double, double, i32, i32, i32, i32 }
%struct.dt_gimp_t = type { i32, ptr, ptr, i32, i32 }
%struct._GtkDarktableResetLabel = type { %struct._GtkEventBox, ptr, ptr, i32, i32 }
%struct._GtkEventBox = type { %struct._GtkBin, ptr }
%struct._GtkBin = type { %struct._GtkContainer, ptr }
%struct._GtkContainer = type { %struct._GtkWidget, ptr }
%struct._GtkWidget = type { %struct._GObject, ptr }
%struct._GObject = type { %struct._GTypeInstance, i32, ptr }
%struct._GTypeInstance = type { ptr }
%struct.dt_iop_module_t = type { i32, ptr, ptr, ptr, ptr, ptr, ptr, ptr, ptr, ptr, ptr, ptr, ptr, ptr, ptr, ptr, ptr, ptr, ptr, ptr, ptr, ptr, ptr, ptr, ptr, ptr, ptr, ptr, ptr, ptr, ptr, ptr, ptr, ptr, ptr, ptr, ptr, ptr, ptr, ptr, ptr, ptr, ptr, ptr, ptr, ptr, ptr, ptr, ptr, ptr, ptr, ptr, ptr, ptr, ptr, ptr, ptr, [20 x i8], i32, i32, i32, i32, i32, i32, i32, [8 x i8], [4 x float], [4 x float], [4 x float], [4 x float], [4 x float], [4 x float], ptr, %struct.dt_dev_histogram_stats_t, [4 x i32], i32, i32, ptr, i32, i32, ptr, ptr, i32, ptr, %struct.dt_pthread_mutex_t, ptr, ptr, ptr, ptr, %struct.anon, ptr, ptr, ptr, ptr, ptr, ptr, ptr, i32, ptr, ptr, ptr, ptr, ptr, ptr, ptr, i32, ptr, i32, [128 x i8], i32, ptr, ptr, i32, [12 x i8] }
%struct.dt_dev_histogram_stats_t = type { i32, i64, i32, i32 }
%struct.anon = type { %struct.anon.0, %struct.anon.1 }
%struct.anon.0 = type { ptr, ptr }
%struct.anon.1 = type { ptr, i32 }
%struct.dt_iop_module_so_t = type { %struct.dt_action_t, ptr, ptr, ptr, ptr, ptr, ptr, ptr, ptr, ptr, ptr, ptr, ptr, ptr, ptr, ptr, ptr, ptr, ptr, ptr, ptr, ptr, ptr, ptr, ptr, ptr, ptr, ptr, ptr, ptr, ptr, ptr, ptr, ptr, ptr, ptr, ptr, ptr, ptr, ptr, ptr, ptr, ptr, ptr, ptr, ptr, ptr, ptr, ptr, ptr, ptr, ptr, ptr, ptr, ptr, ptr, ptr, [20 x i8], ptr, i32, ptr, i32, i32 }
%struct.dt_action_t = type { i32, ptr, ptr, ptr, ptr, ptr }

@dtgtk_reset_label_get_type.static_g_define_type_id = internal global i64 0, align 8
@darktable = external global %struct.darktable_t, align 8
@.str = private unnamed_addr constant [52 x i8] c"[dtgtk_reset_label_new] reference outside %s params\00", align 1
@.str.1 = private unnamed_addr constant [22 x i8] c"double-click to reset\00", align 1
@.str.2 = private unnamed_addr constant [19 x i8] c"button-press-event\00", align 1

; Function Attrs: nounwind uwtable
define i64 @dtgtk_reset_label_get_type() #0 {
  %1 = alloca i32, align 4
  %2 = alloca i64, align 8
  %3 = alloca ptr, align 8
  %4 = alloca i64, align 8
  %5 = alloca i64, align 8
  call void @llvm.lifetime.start.p0(i64 8, ptr %2) #7
  call void @llvm.lifetime.start.p0(i64 8, ptr %3) #7
  store ptr @dtgtk_reset_label_get_type.static_g_define_type_id, ptr %3, align 8, !tbaa !6
  %6 = load ptr, ptr %3, align 8, !tbaa !6
  %7 = load atomic i64, ptr %6 seq_cst, align 8
  store i64 %7, ptr %2, align 8
  %8 = load i64, ptr %2, align 8, !tbaa !11
  store i64 %8, ptr %4, align 8, !tbaa !11
  call void @llvm.lifetime.end.p0(i64 8, ptr %3) #7
  call void @llvm.lifetime.end.p0(i64 8, ptr %2) #7
  %9 = load i64, ptr %4, align 8, !tbaa !11
  %10 = icmp ne i64 %9, 0
  br i1 %10, label %14, label %11

11:                                               ; preds = %0
  %12 = call i32 @g_once_init_enter(ptr noundef @dtgtk_reset_label_get_type.static_g_define_type_id)
  %13 = icmp ne i32 %12, 0
  br label %14

14:                                               ; preds = %11, %0
  %15 = phi i1 [ false, %0 ], [ %13, %11 ]
  %16 = zext i1 %15 to i32
  store i32 %16, ptr %1, align 4, !tbaa !13
  %17 = load i32, ptr %1, align 4, !tbaa !13
  %18 = icmp ne i32 %17, 0
  br i1 %18, label %19, label %22

19:                                               ; preds = %14
  call void @llvm.lifetime.start.p0(i64 8, ptr %5) #7
  %20 = call i64 @dtgtk_reset_label_get_type_once()
  store i64 %20, ptr %5, align 8, !tbaa !11
  %21 = load i64, ptr %5, align 8, !tbaa !11
  call void @g_once_init_leave(ptr noundef @dtgtk_reset_label_get_type.static_g_define_type_id, i64 noundef %21)
  call void @llvm.lifetime.end.p0(i64 8, ptr %5) #7
  br label %22

22:                                               ; preds = %19, %14
  %23 = load i64, ptr @dtgtk_reset_label_get_type.static_g_define_type_id, align 8, !tbaa !11
  ret i64 %23
}

; Function Attrs: nounwind uwtable
define ptr @dtgtk_reset_label_new(ptr noundef %0, ptr noundef %1, ptr noundef %2, i32 noundef %3) #0 {
  %5 = alloca ptr, align 8
  %6 = alloca ptr, align 8
  %7 = alloca ptr, align 8
  %8 = alloca i32, align 4
  %9 = alloca ptr, align 8
  store ptr %0, ptr %5, align 8, !tbaa !15
  store ptr %1, ptr %6, align 8, !tbaa !17
  store ptr %2, ptr %7, align 8, !tbaa !19
  store i32 %3, ptr %8, align 4, !tbaa !13
  call void @llvm.lifetime.start.p0(i64 8, ptr %9) #7
  %10 = call i64 @dtgtk_reset_label_get_type()
  %11 = call ptr (i64, ptr, ...) @g_object_new(i64 noundef %10, ptr noundef null)
  store ptr %11, ptr %9, align 8, !tbaa !20
  %12 = load ptr, ptr %6, align 8, !tbaa !17
  %13 = load ptr, ptr %9, align 8, !tbaa !20
  %14 = getelementptr inbounds nuw %struct._GtkDarktableResetLabel, ptr %13, i32 0, i32 2
  store ptr %12, ptr %14, align 8, !tbaa !22
  %15 = load ptr, ptr %7, align 8, !tbaa !19
  %16 = load ptr, ptr %6, align 8, !tbaa !17
  %17 = getelementptr inbounds nuw %struct.dt_iop_module_t, ptr %16, i32 0, i32 80
  %18 = load ptr, ptr %17, align 8, !tbaa !37
  %19 = ptrtoint ptr %15 to i64
  %20 = ptrtoint ptr %18 to i64
  %21 = sub i64 %19, %20
  %22 = trunc i64 %21 to i32
  %23 = load ptr, ptr %9, align 8, !tbaa !20
  %24 = getelementptr inbounds nuw %struct._GtkDarktableResetLabel, ptr %23, i32 0, i32 3
  store i32 %22, ptr %24, align 8, !tbaa !52
  %25 = load i32, ptr %8, align 4, !tbaa !13
  %26 = load ptr, ptr %9, align 8, !tbaa !20
  %27 = getelementptr inbounds nuw %struct._GtkDarktableResetLabel, ptr %26, i32 0, i32 4
  store i32 %25, ptr %27, align 4, !tbaa !53
  %28 = load ptr, ptr %9, align 8, !tbaa !20
  %29 = getelementptr inbounds nuw %struct._GtkDarktableResetLabel, ptr %28, i32 0, i32 3
  %30 = load i32, ptr %29, align 8, !tbaa !52
  %31 = icmp slt i32 %30, 0
  br i1 %31, label %44, label %32

32:                                               ; preds = %4
  %33 = load ptr, ptr %9, align 8, !tbaa !20
  %34 = getelementptr inbounds nuw %struct._GtkDarktableResetLabel, ptr %33, i32 0, i32 3
  %35 = load i32, ptr %34, align 8, !tbaa !52
  %36 = load ptr, ptr %9, align 8, !tbaa !20
  %37 = getelementptr inbounds nuw %struct._GtkDarktableResetLabel, ptr %36, i32 0, i32 4
  %38 = load i32, ptr %37, align 4, !tbaa !53
  %39 = add nsw i32 %35, %38
  %40 = load ptr, ptr %6, align 8, !tbaa !17
  %41 = getelementptr inbounds nuw %struct.dt_iop_module_t, ptr %40, i32 0, i32 82
  %42 = load i32, ptr %41, align 8, !tbaa !54
  %43 = icmp sgt i32 %39, %42
  br i1 %43, label %44, label %87

44:                                               ; preds = %32, %4
  %45 = load ptr, ptr %7, align 8, !tbaa !19
  %46 = load ptr, ptr %6, align 8, !tbaa !17
  %47 = getelementptr inbounds nuw %struct.dt_iop_module_t, ptr %46, i32 0, i32 81
  %48 = load ptr, ptr %47, align 16, !tbaa !55
  %49 = ptrtoint ptr %45 to i64
  %50 = ptrtoint ptr %48 to i64
  %51 = sub i64 %49, %50
  %52 = trunc i64 %51 to i32
  %53 = load ptr, ptr %9, align 8, !tbaa !20
  %54 = getelementptr inbounds nuw %struct._GtkDarktableResetLabel, ptr %53, i32 0, i32 3
  store i32 %52, ptr %54, align 8, !tbaa !52
  %55 = load ptr, ptr %9, align 8, !tbaa !20
  %56 = getelementptr inbounds nuw %struct._GtkDarktableResetLabel, ptr %55, i32 0, i32 3
  %57 = load i32, ptr %56, align 8, !tbaa !52
  %58 = icmp slt i32 %57, 0
  br i1 %58, label %71, label %59

59:                                               ; preds = %44
  %60 = load ptr, ptr %9, align 8, !tbaa !20
  %61 = getelementptr inbounds nuw %struct._GtkDarktableResetLabel, ptr %60, i32 0, i32 3
  %62 = load i32, ptr %61, align 8, !tbaa !52
  %63 = load ptr, ptr %9, align 8, !tbaa !20
  %64 = getelementptr inbounds nuw %struct._GtkDarktableResetLabel, ptr %63, i32 0, i32 4
  %65 = load i32, ptr %64, align 4, !tbaa !53
  %66 = add nsw i32 %62, %65
  %67 = load ptr, ptr %6, align 8, !tbaa !17
  %68 = getelementptr inbounds nuw %struct.dt_iop_module_t, ptr %67, i32 0, i32 82
  %69 = load i32, ptr %68, align 8, !tbaa !54
  %70 = icmp sgt i32 %66, %69
  br i1 %70, label %71, label %86

71:                                               ; preds = %59, %44
  br label %72

72:                                               ; preds = %71
  %73 = load i32, ptr getelementptr inbounds nuw (%struct.darktable_t, ptr @darktable, i32 0, i32 2), align 8, !tbaa !56
  %74 = xor i32 %73, -1
  %75 = and i32 0, %74
  %76 = icmp ne i32 %75, 0
  br i1 %76, label %83, label %77

77:                                               ; preds = %72
  %78 = load ptr, ptr %6, align 8, !tbaa !17
  %79 = getelementptr inbounds nuw %struct.dt_iop_module_t, ptr %78, i32 0, i32 106
  %80 = load ptr, ptr %79, align 16, !tbaa !89
  %81 = getelementptr inbounds nuw %struct.dt_iop_module_so_t, ptr %80, i32 0, i32 57
  %82 = getelementptr inbounds [20 x i8], ptr %81, i64 0, i64 0
  call void (ptr, ...) @dt_print_ext(ptr noundef @.str, ptr noundef %82)
  br label %83

83:                                               ; preds = %77, %72
  br label %84

84:                                               ; preds = %83
  br label %85

85:                                               ; preds = %84
  br label %86

86:                                               ; preds = %85, %59
  br label %87

87:                                               ; preds = %86, %32
  %88 = load ptr, ptr %5, align 8, !tbaa !15
  %89 = call ptr @gtk_label_new(ptr noundef %88)
  %90 = call i64 @gtk_label_get_type() #8
  %91 = call ptr @g_type_check_instance_cast(ptr noundef %89, i64 noundef %90)
  %92 = load ptr, ptr %9, align 8, !tbaa !20
  %93 = getelementptr inbounds nuw %struct._GtkDarktableResetLabel, ptr %92, i32 0, i32 1
  store ptr %91, ptr %93, align 8, !tbaa !90
  %94 = load ptr, ptr %9, align 8, !tbaa !20
  %95 = getelementptr inbounds nuw %struct._GtkDarktableResetLabel, ptr %94, i32 0, i32 1
  %96 = load ptr, ptr %95, align 8, !tbaa !90
  %97 = call i64 @gtk_widget_get_type() #8
  %98 = call ptr @g_type_check_instance_cast(ptr noundef %96, i64 noundef %97)
  call void @gtk_widget_set_halign(ptr noundef %98, i32 noundef 1)
  %99 = load ptr, ptr %9, align 8, !tbaa !20
  %100 = getelementptr inbounds nuw %struct._GtkDarktableResetLabel, ptr %99, i32 0, i32 1
  %101 = load ptr, ptr %100, align 8, !tbaa !90
  %102 = call i64 @gtk_label_get_type() #8
  %103 = call ptr @g_type_check_instance_cast(ptr noundef %101, i64 noundef %102)
  call void @gtk_label_set_ellipsize(ptr noundef %103, i32 noundef 3)
  %104 = load ptr, ptr %9, align 8, !tbaa !20
  %105 = call i64 @gtk_event_box_get_type() #8
  %106 = call ptr @g_type_check_instance_cast(ptr noundef %104, i64 noundef %105)
  call void @gtk_event_box_set_visible_window(ptr noundef %106, i32 noundef 0)
  %107 = load ptr, ptr %9, align 8, !tbaa !20
  %108 = call i64 @gtk_widget_get_type() #8
  %109 = call ptr @g_type_check_instance_cast(ptr noundef %107, i64 noundef %108)
  %110 = call ptr @dcgettext(ptr noundef null, ptr noundef @.str.1, i32 noundef 5) #7
  call void @gtk_widget_set_tooltip_text(ptr noundef %109, ptr noundef %110)
  %111 = load ptr, ptr %9, align 8, !tbaa !20
  %112 = call i64 @gtk_container_get_type() #8
  %113 = call ptr @g_type_check_instance_cast(ptr noundef %111, i64 noundef %112)
  %114 = load ptr, ptr %9, align 8, !tbaa !20
  %115 = getelementptr inbounds nuw %struct._GtkDarktableResetLabel, ptr %114, i32 0, i32 1
  %116 = load ptr, ptr %115, align 8, !tbaa !90
  %117 = call i64 @gtk_widget_get_type() #8
  %118 = call ptr @g_type_check_instance_cast(ptr noundef %116, i64 noundef %117)
  call void @gtk_container_add(ptr noundef %113, ptr noundef %118)
  %119 = load ptr, ptr %9, align 8, !tbaa !20
  %120 = call i64 @gtk_widget_get_type() #8
  %121 = call ptr @g_type_check_instance_cast(ptr noundef %119, i64 noundef %120)
  call void @gtk_widget_add_events(ptr noundef %121, i32 noundef 256)
  %122 = load ptr, ptr %9, align 8, !tbaa !20
  %123 = call ptr @g_type_check_instance_cast(ptr noundef %122, i64 noundef 80)
  %124 = call i64 @g_signal_connect_data(ptr noundef %123, ptr noundef @.str.2, ptr noundef @_reset_label_callback, ptr noundef null, ptr noundef null, i32 noundef 0)
  %125 = load ptr, ptr %9, align 8, !tbaa !20
  call void @llvm.lifetime.end.p0(i64 8, ptr %9) #7
  ret ptr %125
}