; Function Attrs: nounwind uwtable
define ptr @dtgtk_reset_label_new(ptr noundef %0, ptr noundef %1, ptr noundef %2, i32 noundef %3) local_unnamed_addr #0 {
  %5 = load atomic i64, ptr @dtgtk_reset_label_get_type.static_g_define_type_id seq_cst, align 8
  %.not.i = icmp eq i64 %5, 0
  br i1 %.not.i, label %6, label %dtgtk_reset_label_get_type.exit

6:                                                ; preds = %4
  %7 = tail call i32 @g_once_init_enter(ptr noundef nonnull @dtgtk_reset_label_get_type.static_g_define_type_id) #7
  %.not4.i = icmp eq i32 %7, 0
  br i1 %.not4.i, label %dtgtk_reset_label_get_type.exit, label %8

8:                                                ; preds = %6
  %9 = tail call fastcc i64 @dtgtk_reset_label_get_type_once()
  tail call void @g_once_init_leave(ptr noundef nonnull @dtgtk_reset_label_get_type.static_g_define_type_id, i64 noundef %9) #7
  br label %dtgtk_reset_label_get_type.exit

dtgtk_reset_label_get_type.exit:                  ; preds = %4, %6, %8
  %10 = load i64, ptr @dtgtk_reset_label_get_type.static_g_define_type_id, align 8, !tbaa !6
  %11 = tail call ptr (i64, ptr, ...) @g_object_new(i64 noundef %10, ptr noundef null) #7
  %12 = getelementptr inbounds nuw i8, ptr %11, i64 64
  store ptr %1, ptr %12, align 8, !tbaa !10
  %13 = getelementptr inbounds nuw i8, ptr %1, i64 680
  %14 = load ptr, ptr %13, align 8, !tbaa !28
  %15 = ptrtoint ptr %2 to i64
  %16 = ptrtoint ptr %14 to i64
  %17 = sub i64 %15, %16
  %18 = trunc i64 %17 to i32
  %19 = getelementptr inbounds nuw i8, ptr %11, i64 72
  store i32 %18, ptr %19, align 8, !tbaa !43
  %20 = getelementptr inbounds nuw i8, ptr %11, i64 76
  store i32 %3, ptr %20, align 4, !tbaa !44
  %21 = icmp slt i32 %18, 0
  br i1 %21, label %27, label %22

22:                                               ; preds = %dtgtk_reset_label_get_type.exit
  %23 = add nsw i32 %3, %18
  %24 = getelementptr inbounds nuw i8, ptr %1, i64 696
  %25 = load i32, ptr %24, align 8, !tbaa !45
  %26 = icmp sgt i32 %23, %25
  br i1 %26, label %27, label %43

27:                                               ; preds = %22, %dtgtk_reset_label_get_type.exit
  %28 = getelementptr inbounds nuw i8, ptr %1, i64 688
  %29 = load ptr, ptr %28, align 16, !tbaa !46
  %30 = ptrtoint ptr %29 to i64
  %31 = sub i64 %15, %30
  %32 = trunc i64 %31 to i32
  store i32 %32, ptr %19, align 8, !tbaa !43
  %33 = icmp slt i32 %32, 0
  br i1 %33, label %39, label %34

34:                                               ; preds = %27
  %35 = add nsw i32 %3, %32
  %36 = getelementptr inbounds nuw i8, ptr %1, i64 696
  %37 = load i32, ptr %36, align 8, !tbaa !45
  %38 = icmp sgt i32 %35, %37
  br i1 %38, label %39, label %43

39:                                               ; preds = %34, %27
  %40 = getelementptr inbounds nuw i8, ptr %1, i64 944
  %41 = load ptr, ptr %40, align 16, !tbaa !47
  %42 = getelementptr inbounds nuw i8, ptr %41, i64 496
  tail call void (ptr, ...) @dt_print_ext(ptr noundef nonnull @.str, ptr noundef nonnull %42) #7
  br label %43

43:                                               ; preds = %34, %39, %22
  %44 = tail call ptr @gtk_label_new(ptr noundef %0) #7
  %45 = tail call i64 @gtk_label_get_type() #8
  %46 = tail call ptr @g_type_check_instance_cast(ptr noundef %44, i64 noundef %45) #7
  %47 = getelementptr inbounds nuw i8, ptr %11, i64 56
  store ptr %46, ptr %47, align 8, !tbaa !48
  %48 = tail call i64 @gtk_widget_get_type() #8
  %49 = tail call ptr @g_type_check_instance_cast(ptr noundef %46, i64 noundef %48) #7
  tail call void @gtk_widget_set_halign(ptr noundef %49, i32 noundef 1) #7
  %50 = load ptr, ptr %47, align 8, !tbaa !48
  %51 = tail call ptr @g_type_check_instance_cast(ptr noundef %50, i64 noundef %45) #7
  tail call void @gtk_label_set_ellipsize(ptr noundef %51, i32 noundef 3) #7
  %52 = tail call i64 @gtk_event_box_get_type() #8
  %53 = tail call ptr @g_type_check_instance_cast(ptr noundef nonnull %11, i64 noundef %52) #7
  tail call void @gtk_event_box_set_visible_window(ptr noundef %53, i32 noundef 0) #7
  %54 = tail call ptr @g_type_check_instance_cast(ptr noundef nonnull %11, i64 noundef %48) #7
  %55 = tail call ptr @dcgettext(ptr noundef null, ptr noundef nonnull @.str.1, i32 noundef 5) #7
  tail call void @gtk_widget_set_tooltip_text(ptr noundef %54, ptr noundef %55) #7
  %56 = tail call i64 @gtk_container_get_type() #8
  %57 = tail call ptr @g_type_check_instance_cast(ptr noundef nonnull %11, i64 noundef %56) #7
  %58 = load ptr, ptr %47, align 8, !tbaa !48
  %59 = tail call ptr @g_type_check_instance_cast(ptr noundef %58, i64 noundef %48) #7
  tail call void @gtk_container_add(ptr noundef %57, ptr noundef %59) #7
  %60 = tail call ptr @g_type_check_instance_cast(ptr noundef nonnull %11, i64 noundef %48) #7
  tail call void @gtk_widget_add_events(ptr noundef %60, i32 noundef 256) #7
  %61 = tail call ptr @g_type_check_instance_cast(ptr noundef nonnull %11, i64 noundef 80) #7
  %62 = tail call i64 @g_signal_connect_data(ptr noundef %61, ptr noundef nonnull @.str.2, ptr noundef nonnull @_reset_label_callback, ptr noundef null, ptr noundef null, i32 noundef 0) #7
  ret ptr %11
}